target datalayout = "e-m:e-p270:32:32-p271:32:32-p272:64:64-i64:64-i128:128-f80:128-n8:16:32:64-S128"
target triple = "x86_64-pc-linux-gnu"

%struct.__va_list_tag = type { i32, i32, ptr, ptr }

@ClassUnloading = external global i8, align 1

; Function Attrs: mustprogress nounwind uwtable
define internal noundef i32 @_ZL23IsClassUnloadingEnabledPK9_jvmtiEnvz(ptr noundef %0, ...) #1 {
  %2 = alloca i32, align 4
  %3 = alloca ptr, align 8
  %4 = alloca ptr, align 8
  %5 = alloca [1 x %struct.__va_list_tag], align 16
  store ptr %0, ptr %3, align 8
  store ptr null, ptr %4, align 8
  %6 = getelementptr inbounds [1 x %struct.__va_list_tag], ptr %5, i64 0, i64 0
  call void @llvm.va_start.p0(ptr %6)
  %7 = getelementptr inbounds [1 x %struct.__va_list_tag], ptr %5, i64 0, i64 0
  %8 = getelementptr inbounds %struct.__va_list_tag, ptr %7, i32 0, i32 0
  %9 = load i32, ptr %8, align 16
  %10 = icmp ule i32 %9, 40
  br i1 %10, label %11, label %16

11:                                               ; preds = %1
  %12 = getelementptr inbounds %struct.__va_list_tag, ptr %7, i32 0, i32 3
  %13 = load ptr, ptr %12, align 16
  %14 = getelementptr i8, ptr %13, i32 %9
  %15 = add i32 %9, 8
  store i32 %15, ptr %8, align 16
  br label %20

16:                                               ; preds = %1
  %17 = getelementptr inbounds %struct.__va_list_tag, ptr %7, i32 0, i32 2
  %18 = load ptr, ptr %17, align 8
  %19 = getelementptr i8, ptr %18, i32 8
  store ptr %19, ptr %17, align 8
  br label %20

20:                                               ; preds = %16, %11
  %21 = phi ptr [ %14, %11 ], [ %18, %16 ]
  %22 = load ptr, ptr %21, align 8
  store ptr %22, ptr %4, align 8
  %23 = getelementptr inbounds [1 x %struct.__va_list_tag], ptr %5, i64 0, i64 0
  call void @llvm.va_end.p0(ptr %23)
  %24 = load ptr, ptr %4, align 8
  %25 = icmp eq ptr %24, null
  br i1 %25, label %26, label %27

26:                                               ; preds = %20
  store i32 100, ptr %2, align 4
  br label %32

27:                                               ; preds = %20
  %28 = load i8, ptr @ClassUnloading, align 1
  %29 = trunc i8 %28 to i1
  %30 = zext i1 %29 to i8
  %31 = load ptr, ptr %4, align 8
  store i8 %30, ptr %31, align 1
  store i32 0, ptr %2, align 4
  br label %32

32:                                               ; preds = %27, %26
  %33 = load i32, ptr %2, align 4
  ret i32 %33
}