; Function Attrs: mustprogress nofree norecurse nosync nounwind willreturn uwtable
define internal noundef range(i32 0, 101) i32 @_ZL23IsClassUnloadingEnabledPK9_jvmtiEnvz(ptr nocapture readnone %0, ...) #2 {
  %2 = alloca [1 x %struct.__va_list_tag], align 16
  call void @llvm.va_start.p0(ptr nonnull %2)
  %3 = load i32, ptr %2, align 16
  %4 = icmp ult i32 %3, 41
  br i1 %4, label %5, label %11

5:                                                ; preds = %1
  %6 = getelementptr inbounds i8, ptr %2, i64 16
  %7 = load ptr, ptr %6, align 16
  %8 = zext nneg i32 %3 to i64
  %9 = getelementptr i8, ptr %7, i64 %8
  %10 = add nuw nsw i32 %3, 8
  store i32 %10, ptr %2, align 16
  br label %15

11:                                               ; preds = %1
  %12 = getelementptr inbounds i8, ptr %2, i64 8
  %13 = load ptr, ptr %12, align 8
  %14 = getelementptr i8, ptr %13, i64 8
  store ptr %14, ptr %12, align 8
  br label %15

15:                                               ; preds = %11, %5
  %16 = phi ptr [ %9, %5 ], [ %13, %11 ]
  %17 = load ptr, ptr %16, align 8
  call void @llvm.va_end.p0(ptr nonnull %2)
  %18 = icmp eq ptr %17, null
  br i1 %18, label %22, label %19

19:                                               ; preds = %15
  %20 = load i8, ptr @ClassUnloading, align 1
  %21 = and i8 %20, 1
  store i8 %21, ptr %17, align 1
  br label %22

22:                                               ; preds = %15, %19
  %.0 = phi i32 [ 0, %19 ], [ 100, %15 ]
  ret i32 %.0
}